c__builtin__
set
p0
((lp1
I1921
aI898
aI257
aI469
aI398
aI784
aI658
aI1939
aI110
aI1109
aI25
aI670
aI801
aI803
aI292
aI808
aI3882
aI78
aI1070
aI1071
aI1328
aI690
aI565
aI184
aI1732
aI326
aI929
aI1226
aI75
aI1614
aI337
aI334
aI343
aI733
aI737
aI4710
aI486
aI1767
aI1898
aI494
aI242
aI302
aI2166
aI120
aI16
aI1533
aI382
aI4629
atp2
Rp3
.